target datalayout = "e-m:e-p270:32:32-p271:32:32-p272:64:64-i64:64-i128:128-f80:128-n8:16:32:64-S128"
target triple = "x86_64-pc-linux-gnu"

%struct.expert_field = type { i32, i32 }

@hf_value = internal global i32 0, align 4
@hf_uint64_response = internal global i32 0, align 4
@.str.48 = private unnamed_addr constant [9 x i8] c"Response\00", align 1
@ei_value_length = internal global %struct.expert_field zeroinitializer, align 4
@.str.83 = private unnamed_addr constant [34 x i8] c"Illegal Value length, should be 8\00", align 1
@ei_value_unknown = internal global %struct.expert_field zeroinitializer, align 4
@ei_value_missing = internal global %struct.expert_field zeroinitializer, align 4
@.str.110 = private unnamed_addr constant [8 x i8] c"Request\00", align 1
@.str.162 = private unnamed_addr constant [10 x i8] c"Opcode %d\00", align 1
@.str.168 = private unnamed_addr constant [27 x i8] c"%s %s shall not have Value\00", align 1
@.str.169 = private unnamed_addr constant [22 x i8] c"%s %s must have Value\00", align 1

; Function Attrs: null_pointer_is_valid sspstrong uwtable
define internal void @dissect_value(ptr noundef %0, ptr noundef %1, ptr noundef %2, i32 noundef %3, i32 noundef %4, i8 noundef zeroext %5, i1 noundef zeroext %6) #0 {
  %8 = alloca ptr, align 8
  %9 = alloca ptr, align 8
  %10 = alloca ptr, align 8
  %11 = alloca i32, align 4
  %12 = alloca i32, align 4
  %13 = alloca i8, align 1
  %14 = alloca i8, align 1
  %15 = alloca ptr, align 8
  %16 = alloca i8, align 1
  %17 = alloca i8, align 1
  store ptr %0, ptr %8, align 8
  store ptr %1, ptr %9, align 8
  store ptr %2, ptr %10, align 8
  store i32 %3, ptr %11, align 4
  store i32 %4, ptr %12, align 4
  store i8 %5, ptr %13, align 1
  %18 = zext i1 %6 to i8
  store i8 %18, ptr %14, align 1
  call void @llvm.lifetime.start.p0(i64 8, ptr %15) #9
  store ptr null, ptr %15, align 8
  call void @llvm.lifetime.start.p0(i64 1, ptr %16) #9
  store i8 0, ptr %16, align 1
  call void @llvm.lifetime.start.p0(i64 1, ptr %17) #9
  store i8 0, ptr %17, align 1
  %19 = load i32, ptr %12, align 4
  %20 = icmp ugt i32 %19, 0
  br i1 %20, label %21, label %56

21:                                               ; preds = %7
  %22 = load i8, ptr %14, align 1, !range !6, !noundef !7
  %23 = trunc i8 %22 to i1
  br i1 %23, label %45, label %24

24:                                               ; preds = %21
  %25 = load i8, ptr %13, align 1
  %26 = zext i8 %25 to i32
  %27 = icmp eq i32 %26, 5
  br i1 %27, label %32, label %28

28:                                               ; preds = %24
  %29 = load i8, ptr %13, align 1
  %30 = zext i8 %29 to i32
  %31 = icmp eq i32 %30, 6
  br i1 %31, label %32, label %45

32:                                               ; preds = %28, %24
  %33 = load ptr, ptr %10, align 8
  %34 = load i32, ptr @hf_uint64_response, align 4
  %35 = load ptr, ptr %8, align 8
  %36 = load i32, ptr %11, align 4
  %37 = call ptr @proto_tree_add_item(ptr noundef %33, i32 noundef %34, ptr noundef %35, i32 noundef %36, i32 noundef 8, i32 noundef 0)
  store ptr %37, ptr %15, align 8
  %38 = load i32, ptr %12, align 4
  %39 = icmp ne i32 %38, 8
  br i1 %39, label %40, label %44

40:                                               ; preds = %32
  %41 = load ptr, ptr %9, align 8
  %42 = load ptr, ptr %15, align 8
  %43 = call ptr (ptr, ptr, ptr, ptr, ...) @expert_add_info_format(ptr noundef %41, ptr noundef %42, ptr noundef @ei_value_length, ptr noundef @.str.83)
  br label %44

44:                                               ; preds = %40, %32
  br label %52

45:                                               ; preds = %28, %21
  %46 = load ptr, ptr %10, align 8
  %47 = load i32, ptr @hf_value, align 4
  %48 = load ptr, ptr %8, align 8
  %49 = load i32, ptr %11, align 4
  %50 = load i32, ptr %12, align 4
  %51 = call ptr @proto_tree_add_item(ptr noundef %46, i32 noundef %47, ptr noundef %48, i32 noundef %49, i32 noundef %50, i32 noundef 0)
  store ptr %51, ptr %15, align 8
  br label %52

52:                                               ; preds = %45, %44
  %53 = load i32, ptr %12, align 4
  %54 = load i32, ptr %11, align 4
  %55 = add i32 %54, %53
  store i32 %55, ptr %11, align 4
  br label %56

56:                                               ; preds = %52, %7
  %57 = load i32, ptr %12, align 4
  %58 = icmp ne i32 %57, 0
  br i1 %58, label %59, label %175

59:                                               ; preds = %56
  %60 = load i8, ptr %13, align 1
  %61 = zext i8 %60 to i32
  %62 = icmp eq i32 %61, 0
  br i1 %62, label %95, label %63

63:                                               ; preds = %59
  %64 = load i8, ptr %13, align 1
  %65 = zext i8 %64 to i32
  %66 = icmp eq i32 %65, 9
  br i1 %66, label %95, label %67

67:                                               ; preds = %63
  %68 = load i8, ptr %13, align 1
  %69 = zext i8 %68 to i32
  %70 = icmp eq i32 %69, 12
  br i1 %70, label %95, label %71

71:                                               ; preds = %67
  %72 = load i8, ptr %13, align 1
  %73 = zext i8 %72 to i32
  %74 = icmp eq i32 %73, 13
  br i1 %74, label %95, label %75

75:                                               ; preds = %71
  %76 = load i8, ptr %13, align 1
  %77 = zext i8 %76 to i32
  %78 = icmp eq i32 %77, 5
  br i1 %78, label %95, label %79

79:                                               ; preds = %75
  %80 = load i8, ptr %13, align 1
  %81 = zext i8 %80 to i32
  %82 = icmp eq i32 %81, 6
  br i1 %82, label %95, label %83

83:                                               ; preds = %79
  %84 = load i8, ptr %13, align 1
  %85 = zext i8 %84 to i32
  %86 = icmp eq i32 %85, 11
  br i1 %86, label %95, label %87

87:                                               ; preds = %83
  %88 = load i8, ptr %13, align 1
  %89 = zext i8 %88 to i32
  %90 = icmp eq i32 %89, 21
  br i1 %90, label %95, label %91

91:                                               ; preds = %87
  %92 = load i8, ptr %13, align 1
  %93 = zext i8 %92 to i32
  %94 = icmp eq i32 %93, 22
  br i1 %94, label %95, label %100

95:                                               ; preds = %91, %87, %83, %79, %75, %71, %67, %63, %59
  %96 = load i8, ptr %14, align 1, !range !6, !noundef !7
  %97 = trunc i8 %96 to i1
  br i1 %97, label %98, label %99

98:                                               ; preds = %95
  store i8 1, ptr %16, align 1
  br label %99

99:                                               ; preds = %98, %95
  br label %100

100:                                              ; preds = %99, %91
  %101 = load i8, ptr %13, align 1
  %102 = zext i8 %101 to i32
  %103 = icmp eq i32 %102, 4
  br i1 %103, label %128, label %104

104:                                              ; preds = %100
  %105 = load i8, ptr %13, align 1
  %106 = zext i8 %105 to i32
  %107 = icmp eq i32 %106, 7
  br i1 %107, label %128, label %108

108:                                              ; preds = %104
  %109 = load i8, ptr %13, align 1
  %110 = zext i8 %109 to i32
  %111 = icmp eq i32 %110, 8
  br i1 %111, label %128, label %112

112:                                              ; preds = %108
  %113 = load i8, ptr %13, align 1
  %114 = zext i8 %113 to i32
  %115 = icmp eq i32 %114, 10
  br i1 %115, label %128, label %116

116:                                              ; preds = %112
  %117 = load i8, ptr %13, align 1
  %118 = zext i8 %117 to i32
  %119 = icmp eq i32 %118, 20
  br i1 %119, label %128, label %120

120:                                              ; preds = %116
  %121 = load i8, ptr %13, align 1
  %122 = zext i8 %121 to i32
  %123 = icmp eq i32 %122, 23
  br i1 %123, label %128, label %124

124:                                              ; preds = %120
  %125 = load i8, ptr %13, align 1
  %126 = zext i8 %125 to i32
  %127 = icmp eq i32 %126, 24
  br i1 %127, label %128, label %129

128:                                              ; preds = %124, %120, %116, %112, %108, %104, %100
  store i8 1, ptr %16, align 1
  br label %129

129:                                              ; preds = %128, %124
  %130 = load i8, ptr %13, align 1
  %131 = zext i8 %130 to i32
  %132 = icmp eq i32 %131, 1
  br i1 %132, label %169, label %133

133:                                              ; preds = %129
  %134 = load i8, ptr %13, align 1
  %135 = zext i8 %134 to i32
  %136 = icmp eq i32 %135, 2
  br i1 %136, label %169, label %137

137:                                              ; preds = %133
  %138 = load i8, ptr %13, align 1
  %139 = zext i8 %138 to i32
  %140 = icmp eq i32 %139, 3
  br i1 %140, label %169, label %141

141:                                              ; preds = %137
  %142 = load i8, ptr %13, align 1
  %143 = zext i8 %142 to i32
  %144 = icmp eq i32 %143, 17
  br i1 %144, label %169, label %145

145:                                              ; preds = %141
  %146 = load i8, ptr %13, align 1
  %147 = zext i8 %146 to i32
  %148 = icmp eq i32 %147, 18
  br i1 %148, label %169, label %149

149:                                              ; preds = %145
  %150 = load i8, ptr %13, align 1
  %151 = zext i8 %150 to i32
  %152 = icmp eq i32 %151, 19
  br i1 %152, label %169, label %153

153:                                              ; preds = %149
  %154 = load i8, ptr %13, align 1
  %155 = zext i8 %154 to i32
  %156 = icmp eq i32 %155, 14
  br i1 %156, label %169, label %157

157:                                              ; preds = %153
  %158 = load i8, ptr %13, align 1
  %159 = zext i8 %158 to i32
  %160 = icmp eq i32 %159, 15
  br i1 %160, label %169, label %161

161:                                              ; preds = %157
  %162 = load i8, ptr %13, align 1
  %163 = zext i8 %162 to i32
  %164 = icmp eq i32 %163, 25
  br i1 %164, label %169, label %165

165:                                              ; preds = %161
  %166 = load i8, ptr %13, align 1
  %167 = zext i8 %166 to i32
  %168 = icmp eq i32 %167, 26
  br i1 %168, label %169, label %174

169:                                              ; preds = %165, %161, %157, %153, %149, %145, %141, %137, %133, %129
  %170 = load i8, ptr %14, align 1, !range !6, !noundef !7
  %171 = trunc i8 %170 to i1
  br i1 %171, label %173, label %172

172:                                              ; preds = %169
  store i8 1, ptr %16, align 1
  br label %173

173:                                              ; preds = %172, %169
  br label %174

174:                                              ; preds = %173, %165
  br label %221

175:                                              ; preds = %56
  %176 = load i8, ptr %13, align 1
  %177 = zext i8 %176 to i32
  %178 = icmp eq i32 %177, 1
  br i1 %178, label %215, label %179

179:                                              ; preds = %175
  %180 = load i8, ptr %13, align 1
  %181 = zext i8 %180 to i32
  %182 = icmp eq i32 %181, 2
  br i1 %182, label %215, label %183

183:                                              ; preds = %179
  %184 = load i8, ptr %13, align 1
  %185 = zext i8 %184 to i32
  %186 = icmp eq i32 %185, 3
  br i1 %186, label %215, label %187

187:                                              ; preds = %183
  %188 = load i8, ptr %13, align 1
  %189 = zext i8 %188 to i32
  %190 = icmp eq i32 %189, 17
  br i1 %190, label %215, label %191

191:                                              ; preds = %187
  %192 = load i8, ptr %13, align 1
  %193 = zext i8 %192 to i32
  %194 = icmp eq i32 %193, 18
  br i1 %194, label %215, label %195

195:                                              ; preds = %191
  %196 = load i8, ptr %13, align 1
  %197 = zext i8 %196 to i32
  %198 = icmp eq i32 %197, 19
  br i1 %198, label %215, label %199

199:                                              ; preds = %195
  %200 = load i8, ptr %13, align 1
  %201 = zext i8 %200 to i32
  %202 = icmp eq i32 %201, 14
  br i1 %202, label %215, label %203

203:                                              ; preds = %199
  %204 = load i8, ptr %13, align 1
  %205 = zext i8 %204 to i32
  %206 = icmp eq i32 %205, 15
  br i1 %206, label %215, label %207

207:                                              ; preds = %203
  %208 = load i8, ptr %13, align 1
  %209 = zext i8 %208 to i32
  %210 = icmp eq i32 %209, 25
  br i1 %210, label %215, label %211

211:                                              ; preds = %207
  %212 = load i8, ptr %13, align 1
  %213 = zext i8 %212 to i32
  %214 = icmp eq i32 %213, 26
  br i1 %214, label %215, label %220

215:                                              ; preds = %211, %207, %203, %199, %195, %191, %187, %183, %179, %175
  %216 = load i8, ptr %14, align 1, !range !6, !noundef !7
  %217 = trunc i8 %216 to i1
  br i1 %217, label %218, label %219

218:                                              ; preds = %215
  store i8 1, ptr %17, align 1
  br label %219

219:                                              ; preds = %218, %215
  br label %220

220:                                              ; preds = %219, %211
  br label %221

221:                                              ; preds = %220, %174
  %222 = load i8, ptr %16, align 1, !range !6, !noundef !7
  %223 = trunc i8 %222 to i1
  br i1 %223, label %224, label %234

224:                                              ; preds = %221
  %225 = load ptr, ptr %9, align 8
  %226 = load ptr, ptr %15, align 8
  %227 = load i8, ptr %13, align 1
  %228 = zext i8 %227 to i32
  %229 = call ptr @val_to_str(i32 noundef %228, ptr noundef @opcode_vals, ptr noundef @.str.162)
  %230 = load i8, ptr %14, align 1, !range !6, !noundef !7
  %231 = trunc i8 %230 to i1
  %232 = select i1 %231, ptr @.str.110, ptr @.str.48
  %233 = call ptr (ptr, ptr, ptr, ptr, ...) @expert_add_info_format(ptr noundef %225, ptr noundef %226, ptr noundef @ei_value_unknown, ptr noundef @.str.168, ptr noundef %229, ptr noundef %232)
  br label %250

234:                                              ; preds = %221
  %235 = load i8, ptr %17, align 1, !range !6, !noundef !7
  %236 = trunc i8 %235 to i1
  br i1 %236, label %237, label %249

237:                                              ; preds = %234
  %238 = load ptr, ptr %10, align 8
  %239 = load ptr, ptr %9, align 8
  %240 = load ptr, ptr %8, align 8
  %241 = load i32, ptr %11, align 4
  %242 = load i8, ptr %13, align 1
  %243 = zext i8 %242 to i32
  %244 = call ptr @val_to_str(i32 noundef %243, ptr noundef @opcode_vals, ptr noundef @.str.162)
  %245 = load i8, ptr %14, align 1, !range !6, !noundef !7
  %246 = trunc i8 %245 to i1
  %247 = select i1 %246, ptr @.str.110, ptr @.str.48
  %248 = call ptr (ptr, ptr, ptr, ptr, i32, i32, ptr, ...) @proto_tree_add_expert_format(ptr noundef %238, ptr noundef %239, ptr noundef @ei_value_missing, ptr noundef %240, i32 noundef %241, i32 noundef 0, ptr noundef @.str.169, ptr noundef %244, ptr noundef %247)
  br label %249

249:                                              ; preds = %237, %234
  br label %250

250:                                              ; preds = %249, %224
  call void @llvm.lifetime.end.p0(i64 1, ptr %17) #9
  call void @llvm.lifetime.end.p0(i64 1, ptr %16) #9
  call void @llvm.lifetime.end.p0(i64 8, ptr %15) #9
  ret void
}