; Function Attrs: null_pointer_is_valid sspstrong uwtable
define internal fastcc void @dissect_value(ptr noundef %0, ptr noundef %1, ptr noundef %2, i32 noundef %3, i32 noundef %4, i8 noundef zeroext %5, i1 noundef zeroext %6) unnamed_addr #0 {
  %.not = icmp eq i32 %4, 0
  br i1 %.not, label %33, label %8

8:                                                ; preds = %7
  %9 = add i8 %5, -7
  %or.cond = icmp ult i8 %9, -2
  %or.cond173.not = or i1 %6, %or.cond
  br i1 %or.cond173.not, label %15, label %10

10:                                               ; preds = %8
  %11 = load i32, ptr @hf_uint64_response, align 4
  %12 = tail call ptr @proto_tree_add_item(ptr noundef %2, i32 noundef %11, ptr noundef %0, i32 noundef %3, i32 noundef 8, i32 noundef 0)
  %.not170 = icmp eq i32 %4, 8
  br i1 %.not170, label %18, label %13

13:                                               ; preds = %10
  %14 = tail call ptr (ptr, ptr, ptr, ptr, ...) @expert_add_info_format(ptr noundef %1, ptr noundef %12, ptr noundef nonnull @ei_value_length, ptr noundef nonnull @.str.83)
  br label %18

15:                                               ; preds = %8
  %16 = load i32, ptr @hf_value, align 4
  %17 = tail call ptr @proto_tree_add_item(ptr noundef %2, i32 noundef %16, ptr noundef %0, i32 noundef %3, i32 noundef %4, i32 noundef 0)
  br label %18

18:                                               ; preds = %10, %13, %15
  %.1167 = phi ptr [ %17, %15 ], [ %12, %13 ], [ %12, %10 ]
  switch i8 %5, label %20 [
    i8 22, label %19
    i8 21, label %19
    i8 13, label %19
    i8 12, label %19
    i8 11, label %19
    i8 9, label %19
    i8 6, label %19
    i8 5, label %19
    i8 0, label %19
  ]

19:                                               ; preds = %18, %18, %18, %18, %18, %18, %18, %18, %18
  br label %20

20:                                               ; preds = %19, %18
  %.0165 = phi i1 [ false, %18 ], [ %6, %19 ]
  %switch.tableidx = add i8 %5, -4
  %21 = icmp ult i8 %switch.tableidx, 21
  br i1 %21, label %switch.hole_check, label %switch.lookup

switch.hole_check:                                ; preds = %20
  %switch.maskindex = zext nneg i8 %switch.tableidx to i32
  %switch.shifted = lshr i32 1638489, %switch.maskindex
  %switch.lobit = trunc i32 %switch.shifted to i1
  %spec.select = or i1 %.0165, %switch.lobit
  br label %switch.lookup

switch.lookup:                                    ; preds = %switch.hole_check, %20
  %.1 = phi i1 [ %.0165, %20 ], [ %spec.select, %switch.hole_check ]
  %22 = and i8 %5, -17
  %23 = add i8 %22, -1
  %or.cond59 = icmp ult i8 %23, 3
  %24 = and i8 %5, -2
  %25 = icmp eq i8 %24, 14
  %or.cond65 = or i1 %25, %or.cond59
  %26 = add i8 %5, -25
  %27 = icmp ult i8 %26, 2
  %or.cond71 = or i1 %27, %or.cond65
  %not. = xor i1 %6, true
  %spec.select174 = and i1 %or.cond71, %not.
  %spec.select176 = or i1 %.1, %spec.select174
  br i1 %spec.select176, label %28, label %.thread191

28:                                               ; preds = %switch.lookup
  %29 = zext i8 %5 to i32
  %30 = tail call ptr @val_to_str(i32 noundef %29, ptr noundef nonnull @opcode_vals, ptr noundef nonnull @.str.162)
  %31 = select i1 %6, ptr @.str.110, ptr @.str.48
  %32 = tail call ptr (ptr, ptr, ptr, ptr, ...) @expert_add_info_format(ptr noundef %1, ptr noundef %.1167, ptr noundef nonnull @ei_value_unknown, ptr noundef nonnull @.str.168, ptr noundef %30, ptr noundef nonnull %31)
  br label %.thread191

33:                                               ; preds = %7
  %34 = and i8 %5, -17
  %35 = add i8 %34, -1
  %or.cond86 = icmp ult i8 %35, 3
  %36 = and i8 %5, -2
  %37 = icmp eq i8 %36, 14
  %or.cond92 = or i1 %37, %or.cond86
  %38 = add i8 %5, -25
  %39 = icmp ult i8 %38, 2
  %or.cond98 = or i1 %39, %or.cond92
  %spec.select177 = and i1 %6, %or.cond98
  br i1 %spec.select177, label %40, label %.thread191

40:                                               ; preds = %33
  %41 = zext i8 %5 to i32
  %42 = tail call ptr @val_to_str(i32 noundef %41, ptr noundef nonnull @opcode_vals, ptr noundef nonnull @.str.162)
  %43 = tail call ptr (ptr, ptr, ptr, ptr, i32, i32, ptr, ...) @proto_tree_add_expert_format(ptr noundef %2, ptr noundef %1, ptr noundef nonnull @ei_value_missing, ptr noundef %0, i32 noundef %3, i32 noundef 0, ptr noundef nonnull @.str.169, ptr noundef %42, ptr noundef nonnull @.str.110)
  br label %.thread191

.thread191:                                       ; preds = %switch.lookup, %33, %40, %28
  ret void
}